; Function Attrs: nounwind uwtable
define ptr @initialize_Lake_Util_Lock(i8 noundef zeroext %0, ptr noundef readnone captures(none) %1) local_unnamed_addr #0 {
  %.b4 = load i1, ptr @_G_initialized, align 1
  br i1 %.b4, label %3, label %7

3:                                                ; preds = %2
  tail call void @lean_inc_heartbeat() #4
  %4 = tail call noalias ptr @mi_malloc_small(i64 noundef 24) #4
  %5 = icmp eq ptr %4, null
  br i1 %5, label %6, label %.sink.split

6:                                                ; preds = %3
  tail call void @lean_internal_panic_out_of_memory() #5
  unreachable

7:                                                ; preds = %2
  store i1 true, ptr @_G_initialized, align 1
  %8 = tail call ptr @initialize_Init_System_IO(i8 noundef zeroext %0, ptr noundef nonnull inttoptr (i64 1 to ptr)) #4
  %9 = getelementptr i8, ptr %8, i64 4
  %.val = load i32, ptr %9, align 4
  %.mask.i = and i32 %.val, -16777216
  %10 = icmp eq i32 %.mask.i, 16777216
  br i1 %10, label %35, label %11

11:                                               ; preds = %7
  %12 = load i32, ptr %8, align 4, !tbaa !8
  %13 = icmp sgt i32 %12, 1
  br i1 %13, label %14, label %16, !prof !11

14:                                               ; preds = %11
  %15 = add nsw i32 %12, -1
  store i32 %15, ptr %8, align 4, !tbaa !8
  br label %lean_dec_ref.exit

16:                                               ; preds = %11
  %.not.i = icmp eq i32 %12, 0
  br i1 %.not.i, label %lean_dec_ref.exit, label %17

17:                                               ; preds = %16
  tail call void @lean_dec_ref_cold(ptr noundef nonnull %8) #4
  br label %lean_dec_ref.exit

lean_dec_ref.exit:                                ; preds = %14, %16, %17
  %18 = tail call ptr @lean_mk_string_unchecked(ptr noundef nonnull @.str, i64 noundef 73, i64 noundef 73) #4
  store ptr %18, ptr @l_Lake_busyAcquireLockFile_busyLoop___closed__1, align 8, !tbaa !4
  tail call void @lean_mark_persistent(ptr noundef %18) #4
  %19 = tail call ptr @lean_mk_string_unchecked(ptr noundef nonnull @.str.1, i64 noundef 11, i64 noundef 11) #4
  store ptr %19, ptr @l_Lake_busyAcquireLockFile_busyLoop___closed__2, align 8, !tbaa !4
  tail call void @lean_mark_persistent(ptr noundef %19) #4
  %20 = tail call ptr @lean_mk_string_unchecked(ptr noundef nonnull @.str.2, i64 noundef 10, i64 noundef 10) #4
  store ptr %20, ptr @l_Lake_withLockFile___rarg___lambda__2___closed__1, align 8, !tbaa !4
  tail call void @lean_mark_persistent(ptr noundef %20) #4
  %21 = tail call ptr @lean_mk_string_unchecked(ptr noundef nonnull @.str.3, i64 noundef 42, i64 noundef 42) #4
  store ptr %21, ptr @l_Lake_withLockFile___rarg___lambda__2___closed__2, align 8, !tbaa !4
  tail call void @lean_mark_persistent(ptr noundef %21) #4
  tail call void @lean_inc_heartbeat() #4
  %22 = tail call noalias ptr @mi_malloc_small(i64 noundef 24) #4
  %23 = icmp eq ptr %22, null
  br i1 %23, label %24, label %_init_l_Lake_withLockFile___rarg___closed__1.exit

24:                                               ; preds = %lean_dec_ref.exit
  tail call void @lean_internal_panic_out_of_memory() #5
  unreachable

_init_l_Lake_withLockFile___rarg___closed__1.exit: ; preds = %lean_dec_ref.exit
  %25 = getelementptr inbounds nuw i8, ptr %22, i64 4
  store i32 1, ptr %22, align 4, !tbaa !8
  store i32 -184549352, ptr %25, align 4
  %26 = getelementptr inbounds nuw i8, ptr %22, i64 8
  store ptr @l_Lake_withLockFile___rarg___lambda__3___boxed, ptr %26, align 8, !tbaa !4
  %27 = getelementptr inbounds nuw i8, ptr %22, i64 16
  store i16 1, ptr %27, align 8, !tbaa !12
  %28 = getelementptr inbounds nuw i8, ptr %22, i64 18
  store i16 0, ptr %28, align 2, !tbaa !12
  store ptr %22, ptr @l_Lake_withLockFile___rarg___closed__1, align 8, !tbaa !4
  tail call void @lean_mark_persistent(ptr noundef nonnull %22) #4
  tail call void @lean_inc_heartbeat() #4
  %29 = tail call noalias ptr @mi_malloc_small(i64 noundef 24) #4
  %30 = icmp eq ptr %29, null
  br i1 %30, label %31, label %.sink.split

31:                                               ; preds = %_init_l_Lake_withLockFile___rarg___closed__1.exit
  tail call void @lean_internal_panic_out_of_memory() #5
  unreachable

.sink.split:                                      ; preds = %_init_l_Lake_withLockFile___rarg___closed__1.exit, %3
  %.sink9 = phi ptr [ %4, %3 ], [ %29, %_init_l_Lake_withLockFile___rarg___closed__1.exit ]
  %32 = getelementptr inbounds nuw i8, ptr %.sink9, i64 4
  store i32 1, ptr %.sink9, align 4, !tbaa !8
  store i32 131096, ptr %32, align 4
  %33 = getelementptr inbounds nuw i8, ptr %.sink9, i64 8
  store ptr inttoptr (i64 1 to ptr), ptr %33, align 8, !tbaa !4
  %34 = getelementptr inbounds nuw i8, ptr %.sink9, i64 16
  store ptr inttoptr (i64 1 to ptr), ptr %34, align 8, !tbaa !4
  br label %35

35:                                               ; preds = %.sink.split, %7
  %.0 = phi ptr [ %8, %7 ], [ %.sink9, %.sink.split ]
  ret ptr %.0
}